target datalayout = "e-m:e-p270:32:32-p271:32:32-p272:64:64-i64:64-i128:128-f80:128-n8:16:32:64-S128"
target triple = "x86_64-pc-linux-gnu"

%struct.SampleScanState = type { %struct.ScanState, ptr, ptr, ptr, ptr, i8, i8, i8, i32, i64, i8, i8 }
%struct.ScanState = type { %struct.PlanState, ptr, ptr, ptr }
%struct.PlanState = type { i32, ptr, ptr, ptr, ptr, ptr, ptr, ptr, ptr, ptr, ptr, ptr, ptr, ptr, ptr, ptr, ptr, ptr, i8, ptr, ptr, ptr, ptr, ptr, i8, i8, i8, i8, i8, i8, i8, i8 }

; Function Attrs: nounwind uwtable
define dso_local void @ExecReScanSampleScan(ptr noundef %0) #0 {
  %2 = alloca ptr, align 8
  store ptr %0, ptr %2, align 8
  %3 = load ptr, ptr %2, align 8
  %4 = getelementptr inbounds nuw %struct.SampleScanState, ptr %3, i32 0, i32 7
  store i8 0, ptr %4, align 2
  %5 = load ptr, ptr %2, align 8
  %6 = getelementptr inbounds nuw %struct.SampleScanState, ptr %5, i32 0, i32 11
  store i8 0, ptr %6, align 1
  %7 = load ptr, ptr %2, align 8
  %8 = getelementptr inbounds nuw %struct.SampleScanState, ptr %7, i32 0, i32 10
  store i8 0, ptr %8, align 8
  %9 = load ptr, ptr %2, align 8
  %10 = getelementptr inbounds nuw %struct.SampleScanState, ptr %9, i32 0, i32 9
  store i64 0, ptr %10, align 8
  %11 = load ptr, ptr %2, align 8
  %12 = getelementptr inbounds nuw %struct.SampleScanState, ptr %11, i32 0, i32 0
  call void @ExecScanReScan(ptr noundef %12)
  ret void
}