; Function Attrs: nounwind uwtable
define dso_local void @ExecReScanSampleScan(ptr noundef initializes((258, 259), (264, 274)) %0) local_unnamed_addr #0 {
  %2 = getelementptr inbounds nuw i8, ptr %0, i64 258
  store i8 0, ptr %2, align 2
  %3 = getelementptr inbounds nuw i8, ptr %0, i64 273
  store i8 0, ptr %3, align 1
  %4 = getelementptr inbounds nuw i8, ptr %0, i64 272
  store i8 0, ptr %4, align 8
  %5 = getelementptr inbounds nuw i8, ptr %0, i64 264
  store i64 0, ptr %5, align 8
  tail call void @ExecScanReScan(ptr noundef %0) #6
  ret void
}